target datalayout = "e-m:e-p270:32:32-p271:32:32-p272:64:64-i64:64-i128:128-f80:128-n8:16:32:64-S128"
target triple = "x86_64-pc-linux-gnu"

%struct._value_string = type { i32, ptr }
%struct.lcid_drb_mapping_t = type { i32, i32, i32, i32 }

@.str.1122 = private unnamed_addr constant [7 x i8] c"LCID 3\00", align 1

; Function Attrs: nounwind uwtable
define internal void @lcid_drb_mappings_lcid_tostr_cb(ptr noundef %0, ptr noundef %1, ptr noundef %2, ptr noundef %3, ptr noundef %4) #0 {
  %6 = alloca ptr, align 8
  %7 = alloca ptr, align 8
  %8 = alloca ptr, align 8
  %9 = alloca ptr, align 8
  %10 = alloca ptr, align 8
  %11 = alloca i32, align 4
  store ptr %0, ptr %6, align 8
  store ptr %1, ptr %7, align 8
  store ptr %2, ptr %8, align 8
  store ptr %3, ptr %9, align 8
  store ptr %4, ptr %10, align 8
  store i32 0, ptr %11, align 4
  br label %12

12:                                               ; preds = %46, %5
  %13 = load ptr, ptr %9, align 8
  %14 = load i32, ptr %11, align 4
  %15 = zext i32 %14 to i64
  %16 = getelementptr %struct._value_string, ptr %13, i64 %15
  %17 = getelementptr inbounds %struct._value_string, ptr %16, i32 0, i32 1
  %18 = load ptr, ptr %17, align 8
  %19 = icmp ne ptr %18, null
  br i1 %19, label %20, label %49

20:                                               ; preds = %12
  %21 = load ptr, ptr %9, align 8
  %22 = load i32, ptr %11, align 4
  %23 = zext i32 %22 to i64
  %24 = getelementptr %struct._value_string, ptr %21, i64 %23
  %25 = getelementptr inbounds %struct._value_string, ptr %24, i32 0, i32 0
  %26 = load i32, ptr %25, align 8
  %27 = load ptr, ptr %6, align 8
  %28 = getelementptr inbounds %struct.lcid_drb_mapping_t, ptr %27, i32 0, i32 0
  %29 = load i32, ptr %28, align 4
  %30 = icmp eq i32 %26, %29
  br i1 %30, label %31, label %45

31:                                               ; preds = %20
  %32 = load ptr, ptr %9, align 8
  %33 = load i32, ptr %11, align 4
  %34 = zext i32 %33 to i64
  %35 = getelementptr %struct._value_string, ptr %32, i64 %34
  %36 = getelementptr inbounds %struct._value_string, ptr %35, i32 0, i32 1
  %37 = load ptr, ptr %36, align 8
  %38 = call noalias ptr @g_strdup(ptr noundef %37)
  %39 = load ptr, ptr %7, align 8
  store ptr %38, ptr %39, align 8
  %40 = load ptr, ptr %7, align 8
  %41 = load ptr, ptr %40, align 8
  %42 = call i64 @strlen(ptr noundef %41) #10
  %43 = trunc i64 %42 to i32
  %44 = load ptr, ptr %8, align 8
  store i32 %43, ptr %44, align 4
  br label %53

45:                                               ; preds = %20
  br label %46

46:                                               ; preds = %45
  %47 = load i32, ptr %11, align 4
  %48 = add i32 %47, 1
  store i32 %48, ptr %11, align 4
  br label %12, !llvm.loop !7

49:                                               ; preds = %12
  %50 = call noalias ptr @g_strdup(ptr noundef @.str.1122)
  %51 = load ptr, ptr %7, align 8
  store ptr %50, ptr %51, align 8
  %52 = load ptr, ptr %8, align 8
  store i32 6, ptr %52, align 4
  br label %53

53:                                               ; preds = %49, %31
  ret void
}