; Function Attrs: nounwind uwtable
define internal void @lcid_drb_mappings_lcid_tostr_cb(ptr noundef readonly captures(none) %0, ptr noundef writeonly captures(none) %1, ptr noundef writeonly captures(none) %2, ptr noundef readonly captures(none) %3, ptr readnone captures(none) %4) #0 {
  %6 = getelementptr inbounds nuw i8, ptr %3, i64 8
  %7 = load ptr, ptr %6, align 8
  %.not14 = icmp eq ptr %7, null
  br i1 %.not14, label %._crit_edge, label %.lr.ph

.lr.ph:                                           ; preds = %5
  %8 = load i32, ptr %0, align 4
  %9 = load i32, ptr %3, align 8
  %10 = icmp eq i32 %9, %8
  br i1 %10, label %._crit_edge21, label %.lr.ph20

.lr.ph20:                                         ; preds = %.lr.ph, %16
  %.01519 = phi i32 [ %11, %16 ], [ 0, %.lr.ph ]
  %11 = add i32 %.01519, 1
  %12 = zext i32 %11 to i64
  %13 = getelementptr %struct._value_string, ptr %3, i64 %12
  %14 = getelementptr inbounds nuw i8, ptr %13, i64 8
  %15 = load ptr, ptr %14, align 8
  %.not = icmp eq ptr %15, null
  br i1 %.not, label %._crit_edge, label %16, !llvm.loop !7

16:                                               ; preds = %.lr.ph20
  %17 = load i32, ptr %13, align 8
  %18 = icmp eq i32 %17, %8
  br i1 %18, label %._crit_edge21, label %.lr.ph20, !llvm.loop !7

._crit_edge21:                                    ; preds = %16, %.lr.ph
  %.lcssa = phi ptr [ %7, %.lr.ph ], [ %15, %16 ]
  %19 = tail call noalias ptr @g_strdup(ptr noundef nonnull %.lcssa) #12
  store ptr %19, ptr %1, align 8
  %20 = tail call i64 @strlen(ptr noundef nonnull dereferenceable(1) %19) #13
  %21 = trunc i64 %20 to i32
  br label %23

._crit_edge:                                      ; preds = %.lr.ph20, %5
  %22 = tail call noalias ptr @g_strdup(ptr noundef nonnull @.str.1122) #12
  store ptr %22, ptr %1, align 8
  br label %23

23:                                               ; preds = %._crit_edge, %._crit_edge21
  %storemerge = phi i32 [ 6, %._crit_edge ], [ %21, %._crit_edge21 ]
  store i32 %storemerge, ptr %2, align 4
  ret void
}